target datalayout = "e-m:e-p270:32:32-p271:32:32-p272:64:64-i64:64-i128:128-f80:128-n8:16:32:64-S128"
target triple = "x86_64-unknown-linux-gnu"

%class.symbol = type { ptr }
%class.vector.5 = type { ptr }

@.str.1 = private unnamed_addr constant [3 x i8] c")\0A\00", align 1
@.str.4 = private unnamed_addr constant [2 x i8] c" \00", align 1
@.str.9 = private unnamed_addr constant [8 x i8] c"(labels\00", align 1
@.str.11 = private unnamed_addr constant [5 x i8] c"null\00", align 1
@.str.12 = private unnamed_addr constant [3 x i8] c"k!\00", align 1

; Function Attrs: mustprogress uwtable
define linkonce_odr hidden noundef nonnull align 8 dereferenceable(8) ptr @_ZlsRSo6symbol(ptr noundef nonnull align 8 dereferenceable(8) %target, ptr %s.coerce) #4 comdat {
entry:
  %s = alloca %class.symbol, align 8
  %target.addr = alloca ptr, align 8
  %coerce.dive = getelementptr inbounds %class.symbol, ptr %s, i32 0, i32 0
  store ptr %s.coerce, ptr %coerce.dive, align 8
  store ptr %target, ptr %target.addr, align 8
  %m_data = getelementptr inbounds %class.symbol, ptr %s, i32 0, i32 0
  %0 = load ptr, ptr %m_data, align 8
  %1 = ptrtoint ptr %0 to i64
  %and = and i64 %1, 7
  %cmp = icmp eq i64 %and, 0
  br i1 %cmp, label %if.then, label %if.else5

if.then:                                          ; preds = %entry
  %m_data1 = getelementptr inbounds %class.symbol, ptr %s, i32 0, i32 0
  %2 = load ptr, ptr %m_data1, align 8
  %tobool = icmp ne ptr %2, null
  br i1 %tobool, label %if.then2, label %if.else

if.then2:                                         ; preds = %if.then
  %3 = load ptr, ptr %target.addr, align 8
  %m_data3 = getelementptr inbounds %class.symbol, ptr %s, i32 0, i32 0
  %4 = load ptr, ptr %m_data3, align 8
  %call = call noundef nonnull align 8 dereferenceable(8) ptr @_ZStlsISt11char_traitsIcEERSt13basic_ostreamIcT_ES5_PKc(ptr noundef nonnull align 8 dereferenceable(8) %3, ptr noundef %4)
  br label %if.end

if.else:                                          ; preds = %if.then
  %5 = load ptr, ptr %target.addr, align 8
  %call4 = call noundef nonnull align 8 dereferenceable(8) ptr @_ZStlsISt11char_traitsIcEERSt13basic_ostreamIcT_ES5_PKc(ptr noundef nonnull align 8 dereferenceable(8) %5, ptr noundef @.str.11)
  br label %if.end

if.end:                                           ; preds = %if.else, %if.then2
  br label %if.end9

if.else5:                                         ; preds = %entry
  %6 = load ptr, ptr %target.addr, align 8
  %call6 = call noundef nonnull align 8 dereferenceable(8) ptr @_ZStlsISt11char_traitsIcEERSt13basic_ostreamIcT_ES5_PKc(ptr noundef nonnull align 8 dereferenceable(8) %6, ptr noundef @.str.12)
  %m_data7 = getelementptr inbounds %class.symbol, ptr %s, i32 0, i32 0
  %7 = load ptr, ptr %m_data7, align 8
  %8 = ptrtoint ptr %7 to i64
  %shr = lshr i64 %8, 3
  %conv = trunc i64 %shr to i32
  %call8 = call noundef nonnull align 8 dereferenceable(8) ptr @_ZNSolsEi(ptr noundef nonnull align 8 dereferenceable(8) %call6, i32 noundef %conv)
  br label %if.end9

if.end9:                                          ; preds = %if.else5, %if.end
  %9 = load ptr, ptr %target.addr, align 8
  ret ptr %9
}

; Function Attrs: mustprogress nounwind uwtable
define linkonce_odr hidden noundef nonnull align 8 dereferenceable(8) ptr @_ZN6vectorI6symbolLb0EjEixEj(ptr noundef nonnull align 8 dereferenceable(8) %this, i32 noundef %idx) #5 comdat align 2 {
entry:
  %this.addr = alloca ptr, align 8
  %idx.addr = alloca i32, align 4
  store ptr %this, ptr %this.addr, align 8
  store i32 %idx, ptr %idx.addr, align 4
  %this1 = load ptr, ptr %this.addr, align 8
  %m_data = getelementptr inbounds %class.vector.5, ptr %this1, i32 0, i32 0
  %0 = load ptr, ptr %m_data, align 8
  %1 = load i32, ptr %idx.addr, align 4
  %idxprom = zext i32 %1 to i64
  %arrayidx = getelementptr inbounds %class.symbol, ptr %0, i64 %idxprom
  ret ptr %arrayidx
}

; Function Attrs: mustprogress nounwind uwtable
define linkonce_odr hidden noundef i32 @_ZNK6vectorI6symbolLb0EjE4sizeEv(ptr noundef nonnull align 8 dereferenceable(8) %this) #5 comdat align 2 {
entry:
  %retval = alloca i32, align 4
  %this.addr = alloca ptr, align 8
  store ptr %this, ptr %this.addr, align 8
  %this1 = load ptr, ptr %this.addr, align 8
  %m_data = getelementptr inbounds %class.vector.5, ptr %this1, i32 0, i32 0
  %0 = load ptr, ptr %m_data, align 8
  %cmp = icmp eq ptr %0, null
  br i1 %cmp, label %if.then, label %if.end

if.then:                                          ; preds = %entry
  store i32 0, ptr %retval, align 4
  br label %return

if.end:                                           ; preds = %entry
  %m_data2 = getelementptr inbounds %class.vector.5, ptr %this1, i32 0, i32 0
  %1 = load ptr, ptr %m_data2, align 8
  %arrayidx = getelementptr inbounds i32, ptr %1, i64 -1
  %2 = load i32, ptr %arrayidx, align 4
  store i32 %2, ptr %retval, align 4
  br label %return

return:                                           ; preds = %if.end, %if.then
  %3 = load i32, ptr %retval, align 4
  ret i32 %3
}

; Function Attrs: mustprogress uwtable
define hidden void @_ZN7datalog12boogie_proof9pp_labelsERSoR7svectorI6symboljE(ptr noundef nonnull align 8 dereferenceable(32) %this, ptr noundef nonnull align 8 dereferenceable(8) %out, ptr noundef nonnull align 8 dereferenceable(8) %lbls) #4 align 2 {
entry:
  %this.addr = alloca ptr, align 8
  %out.addr = alloca ptr, align 8
  %lbls.addr = alloca ptr, align 8
  %i = alloca i32, align 4
  %agg.tmp = alloca %class.symbol, align 8
  store ptr %this, ptr %this.addr, align 8
  store ptr %out, ptr %out.addr, align 8
  store ptr %lbls, ptr %lbls.addr, align 8
  %0 = load ptr, ptr %out.addr, align 8
  %call = call noundef nonnull align 8 dereferenceable(8) ptr @_ZStlsISt11char_traitsIcEERSt13basic_ostreamIcT_ES5_PKc(ptr noundef nonnull align 8 dereferenceable(8) %0, ptr noundef @.str.9)
  store i32 0, ptr %i, align 4
  br label %for.cond

for.cond:                                         ; preds = %for.inc, %entry
  %1 = load i32, ptr %i, align 4
  %2 = load ptr, ptr %lbls.addr, align 8
  %call2 = call noundef i32 @_ZNK6vectorI6symbolLb0EjE4sizeEv(ptr noundef nonnull align 8 dereferenceable(8) %2)
  %cmp = icmp ult i32 %1, %call2
  br i1 %cmp, label %for.body, label %for.end

for.body:                                         ; preds = %for.cond
  %3 = load ptr, ptr %out.addr, align 8
  %call3 = call noundef nonnull align 8 dereferenceable(8) ptr @_ZStlsISt11char_traitsIcEERSt13basic_ostreamIcT_ES5_PKc(ptr noundef nonnull align 8 dereferenceable(8) %3, ptr noundef @.str.4)
  %4 = load ptr, ptr %lbls.addr, align 8
  %5 = load i32, ptr %i, align 4
  %call4 = call noundef nonnull align 8 dereferenceable(8) ptr @_ZN6vectorI6symbolLb0EjEixEj(ptr noundef nonnull align 8 dereferenceable(8) %4, i32 noundef %5)
  call void @llvm.memcpy.p0.p0.i64(ptr align 8 %agg.tmp, ptr align 8 %call4, i64 8, i1 false)
  %coerce.dive = getelementptr inbounds %class.symbol, ptr %agg.tmp, i32 0, i32 0
  %6 = load ptr, ptr %coerce.dive, align 8
  %call5 = call noundef nonnull align 8 dereferenceable(8) ptr @_ZlsRSo6symbol(ptr noundef nonnull align 8 dereferenceable(8) %call3, ptr %6)
  br label %for.inc

for.inc:                                          ; preds = %for.body
  %7 = load i32, ptr %i, align 4
  %inc = add i32 %7, 1
  store i32 %inc, ptr %i, align 4
  br label %for.cond, !llvm.loop !20

for.end:                                          ; preds = %for.cond
  %8 = load ptr, ptr %out.addr, align 8
  %call6 = call noundef nonnull align 8 dereferenceable(8) ptr @_ZStlsISt11char_traitsIcEERSt13basic_ostreamIcT_ES5_PKc(ptr noundef nonnull align 8 dereferenceable(8) %8, ptr noundef @.str.1)
  ret void
}